target datalayout = "e-m:e-p270:32:32-p271:32:32-p272:64:64-i64:64-i128:128-f80:128-n8:16:32:64-S128"
target triple = "x86_64-pc-linux-gnu"

%"class.std::__1::ios_base" = type { ptr, i32, i64, i64, i32, i32, ptr, ptr, ptr, ptr, i64, i64, ptr, i64, i64, ptr, i64, i64 }

; Function Attrs: mustprogress nounwind uwtable
define dso_local void @_ZNSt3__18ios_base4moveERS0_(ptr noundef nonnull align 8 dereferenceable(136) %0, ptr noundef nonnull align 8 dereferenceable(136) %1) #0 align 2 {
  %3 = alloca ptr, align 8
  %4 = alloca ptr, align 8
  %5 = alloca ptr, align 8
  store ptr %0, ptr %3, align 8, !tbaa !27
  store ptr %1, ptr %4, align 8, !tbaa !27
  %6 = load ptr, ptr %3, align 8
  %7 = load ptr, ptr %4, align 8, !tbaa !27
  %8 = getelementptr inbounds nuw %"class.std::__1::ios_base", ptr %7, i32 0, i32 1
  %9 = load i32, ptr %8, align 8, !tbaa !63
  %10 = getelementptr inbounds nuw %"class.std::__1::ios_base", ptr %6, i32 0, i32 1
  store i32 %9, ptr %10, align 8, !tbaa !63
  %11 = load ptr, ptr %4, align 8, !tbaa !27
  %12 = getelementptr inbounds nuw %"class.std::__1::ios_base", ptr %11, i32 0, i32 2
  %13 = load i64, ptr %12, align 8, !tbaa !65
  %14 = getelementptr inbounds nuw %"class.std::__1::ios_base", ptr %6, i32 0, i32 2
  store i64 %13, ptr %14, align 8, !tbaa !65
  %15 = load ptr, ptr %4, align 8, !tbaa !27
  %16 = getelementptr inbounds nuw %"class.std::__1::ios_base", ptr %15, i32 0, i32 3
  %17 = load i64, ptr %16, align 8, !tbaa !64
  %18 = getelementptr inbounds nuw %"class.std::__1::ios_base", ptr %6, i32 0, i32 3
  store i64 %17, ptr %18, align 8, !tbaa !64
  %19 = load ptr, ptr %4, align 8, !tbaa !27
  %20 = getelementptr inbounds nuw %"class.std::__1::ios_base", ptr %19, i32 0, i32 4
  %21 = load i32, ptr %20, align 8, !tbaa !52
  %22 = getelementptr inbounds nuw %"class.std::__1::ios_base", ptr %6, i32 0, i32 4
  store i32 %21, ptr %22, align 8, !tbaa !52
  %23 = load ptr, ptr %4, align 8, !tbaa !27
  %24 = getelementptr inbounds nuw %"class.std::__1::ios_base", ptr %23, i32 0, i32 5
  %25 = load i32, ptr %24, align 4, !tbaa !62
  %26 = getelementptr inbounds nuw %"class.std::__1::ios_base", ptr %6, i32 0, i32 5
  store i32 %25, ptr %26, align 4, !tbaa !62
  %27 = getelementptr inbounds nuw %"class.std::__1::ios_base", ptr %6, i32 0, i32 6
  store ptr null, ptr %27, align 8, !tbaa !61
  call void @llvm.lifetime.start.p0(i64 8, ptr %5) #3
  %28 = load ptr, ptr %4, align 8, !tbaa !27
  %29 = getelementptr inbounds nuw %"class.std::__1::ios_base", ptr %28, i32 0, i32 7
  store ptr %29, ptr %5, align 8, !tbaa !43
  %30 = getelementptr inbounds nuw %"class.std::__1::ios_base", ptr %6, i32 0, i32 7
  %31 = load ptr, ptr %5, align 8, !tbaa !43
  call void @_ZNSt3__16localeC1ERKS0_(ptr noundef nonnull align 8 dereferenceable(8) %30, ptr noundef nonnull align 8 dereferenceable(8) %31) #3
  %32 = load ptr, ptr %4, align 8, !tbaa !27
  %33 = getelementptr inbounds nuw %"class.std::__1::ios_base", ptr %32, i32 0, i32 8
  %34 = load ptr, ptr %33, align 8, !tbaa !38
  %35 = getelementptr inbounds nuw %"class.std::__1::ios_base", ptr %6, i32 0, i32 8
  store ptr %34, ptr %35, align 8, !tbaa !38
  %36 = load ptr, ptr %4, align 8, !tbaa !27
  %37 = getelementptr inbounds nuw %"class.std::__1::ios_base", ptr %36, i32 0, i32 8
  store ptr null, ptr %37, align 8, !tbaa !38
  %38 = load ptr, ptr %4, align 8, !tbaa !27
  %39 = getelementptr inbounds nuw %"class.std::__1::ios_base", ptr %38, i32 0, i32 9
  %40 = load ptr, ptr %39, align 8, !tbaa !40
  %41 = getelementptr inbounds nuw %"class.std::__1::ios_base", ptr %6, i32 0, i32 9
  store ptr %40, ptr %41, align 8, !tbaa !40
  %42 = load ptr, ptr %4, align 8, !tbaa !27
  %43 = getelementptr inbounds nuw %"class.std::__1::ios_base", ptr %42, i32 0, i32 9
  store ptr null, ptr %43, align 8, !tbaa !40
  %44 = load ptr, ptr %4, align 8, !tbaa !27
  %45 = getelementptr inbounds nuw %"class.std::__1::ios_base", ptr %44, i32 0, i32 10
  %46 = load i64, ptr %45, align 8, !tbaa !31
  %47 = getelementptr inbounds nuw %"class.std::__1::ios_base", ptr %6, i32 0, i32 10
  store i64 %46, ptr %47, align 8, !tbaa !31
  %48 = load ptr, ptr %4, align 8, !tbaa !27
  %49 = getelementptr inbounds nuw %"class.std::__1::ios_base", ptr %48, i32 0, i32 10
  store i64 0, ptr %49, align 8, !tbaa !31
  %50 = load ptr, ptr %4, align 8, !tbaa !27
  %51 = getelementptr inbounds nuw %"class.std::__1::ios_base", ptr %50, i32 0, i32 11
  %52 = load i64, ptr %51, align 8, !tbaa !58
  %53 = getelementptr inbounds nuw %"class.std::__1::ios_base", ptr %6, i32 0, i32 11
  store i64 %52, ptr %53, align 8, !tbaa !58
  %54 = load ptr, ptr %4, align 8, !tbaa !27
  %55 = getelementptr inbounds nuw %"class.std::__1::ios_base", ptr %54, i32 0, i32 11
  store i64 0, ptr %55, align 8, !tbaa !58
  %56 = load ptr, ptr %4, align 8, !tbaa !27
  %57 = getelementptr inbounds nuw %"class.std::__1::ios_base", ptr %56, i32 0, i32 12
  %58 = load ptr, ptr %57, align 8, !tbaa !48
  %59 = getelementptr inbounds nuw %"class.std::__1::ios_base", ptr %6, i32 0, i32 12
  store ptr %58, ptr %59, align 8, !tbaa !48
  %60 = load ptr, ptr %4, align 8, !tbaa !27
  %61 = getelementptr inbounds nuw %"class.std::__1::ios_base", ptr %60, i32 0, i32 12
  store ptr null, ptr %61, align 8, !tbaa !48
  %62 = load ptr, ptr %4, align 8, !tbaa !27
  %63 = getelementptr inbounds nuw %"class.std::__1::ios_base", ptr %62, i32 0, i32 13
  %64 = load i64, ptr %63, align 8, !tbaa !50
  %65 = getelementptr inbounds nuw %"class.std::__1::ios_base", ptr %6, i32 0, i32 13
  store i64 %64, ptr %65, align 8, !tbaa !50
  %66 = load ptr, ptr %4, align 8, !tbaa !27
  %67 = getelementptr inbounds nuw %"class.std::__1::ios_base", ptr %66, i32 0, i32 13
  store i64 0, ptr %67, align 8, !tbaa !50
  %68 = load ptr, ptr %4, align 8, !tbaa !27
  %69 = getelementptr inbounds nuw %"class.std::__1::ios_base", ptr %68, i32 0, i32 14
  %70 = load i64, ptr %69, align 8, !tbaa !47
  %71 = getelementptr inbounds nuw %"class.std::__1::ios_base", ptr %6, i32 0, i32 14
  store i64 %70, ptr %71, align 8, !tbaa !47
  %72 = load ptr, ptr %4, align 8, !tbaa !27
  %73 = getelementptr inbounds nuw %"class.std::__1::ios_base", ptr %72, i32 0, i32 14
  store i64 0, ptr %73, align 8, !tbaa !47
  %74 = load ptr, ptr %4, align 8, !tbaa !27
  %75 = getelementptr inbounds nuw %"class.std::__1::ios_base", ptr %74, i32 0, i32 15
  %76 = load ptr, ptr %75, align 8, !tbaa !54
  %77 = getelementptr inbounds nuw %"class.std::__1::ios_base", ptr %6, i32 0, i32 15
  store ptr %76, ptr %77, align 8, !tbaa !54
  %78 = load ptr, ptr %4, align 8, !tbaa !27
  %79 = getelementptr inbounds nuw %"class.std::__1::ios_base", ptr %78, i32 0, i32 15
  store ptr null, ptr %79, align 8, !tbaa !54
  %80 = load ptr, ptr %4, align 8, !tbaa !27
  %81 = getelementptr inbounds nuw %"class.std::__1::ios_base", ptr %80, i32 0, i32 16
  %82 = load i64, ptr %81, align 8, !tbaa !56
  %83 = getelementptr inbounds nuw %"class.std::__1::ios_base", ptr %6, i32 0, i32 16
  store i64 %82, ptr %83, align 8, !tbaa !56
  %84 = load ptr, ptr %4, align 8, !tbaa !27
  %85 = getelementptr inbounds nuw %"class.std::__1::ios_base", ptr %84, i32 0, i32 16
  store i64 0, ptr %85, align 8, !tbaa !56
  %86 = load ptr, ptr %4, align 8, !tbaa !27
  %87 = getelementptr inbounds nuw %"class.std::__1::ios_base", ptr %86, i32 0, i32 17
  %88 = load i64, ptr %87, align 8, !tbaa !53
  %89 = getelementptr inbounds nuw %"class.std::__1::ios_base", ptr %6, i32 0, i32 17
  store i64 %88, ptr %89, align 8, !tbaa !53
  %90 = load ptr, ptr %4, align 8, !tbaa !27
  %91 = getelementptr inbounds nuw %"class.std::__1::ios_base", ptr %90, i32 0, i32 17
  store i64 0, ptr %91, align 8, !tbaa !53
  call void @llvm.lifetime.end.p0(i64 8, ptr %5) #3
  ret void
}