; Function Attrs: mustprogress nounwind uwtable
define dso_local void @_ZNSt3__18ios_base4moveERS0_(ptr noundef nonnull align 8 dereferenceable(136) initializes((8, 12), (16, 48)) %0, ptr noundef nonnull align 8 dereferenceable(136) %1) local_unnamed_addr #6 align 2 {
  %3 = getelementptr inbounds nuw i8, ptr %1, i64 8
  %4 = load i32, ptr %3, align 8, !tbaa !38
  %5 = getelementptr inbounds nuw i8, ptr %0, i64 8
  store i32 %4, ptr %5, align 8, !tbaa !38
  %6 = getelementptr inbounds nuw i8, ptr %1, i64 16
  %7 = load i64, ptr %6, align 8, !tbaa !40
  %8 = getelementptr inbounds nuw i8, ptr %0, i64 16
  store i64 %7, ptr %8, align 8, !tbaa !40
  %9 = getelementptr inbounds nuw i8, ptr %1, i64 24
  %10 = load i64, ptr %9, align 8, !tbaa !39
  %11 = getelementptr inbounds nuw i8, ptr %0, i64 24
  store i64 %10, ptr %11, align 8, !tbaa !39
  %12 = getelementptr inbounds nuw i8, ptr %1, i64 32
  %13 = load i32, ptr %12, align 8, !tbaa !29
  %14 = getelementptr inbounds nuw i8, ptr %0, i64 32
  store i32 %13, ptr %14, align 8, !tbaa !29
  %15 = getelementptr inbounds nuw i8, ptr %1, i64 36
  %16 = load i32, ptr %15, align 4, !tbaa !30
  %17 = getelementptr inbounds nuw i8, ptr %0, i64 36
  store i32 %16, ptr %17, align 4, !tbaa !30
  %18 = getelementptr inbounds nuw i8, ptr %0, i64 40
  store ptr null, ptr %18, align 8, !tbaa !37
  %19 = getelementptr inbounds nuw i8, ptr %1, i64 48
  %20 = getelementptr inbounds nuw i8, ptr %0, i64 48
  tail call void @_ZNSt3__16localeC1ERKS0_(ptr noundef nonnull align 8 dereferenceable(8) %20, ptr noundef nonnull align 8 dereferenceable(8) %19) #25
  %21 = getelementptr inbounds nuw i8, ptr %1, i64 56
  %22 = load ptr, ptr %21, align 8, !tbaa !21
  %23 = getelementptr inbounds nuw i8, ptr %0, i64 56
  store ptr %22, ptr %23, align 8, !tbaa !21
  store ptr null, ptr %21, align 8, !tbaa !21
  %24 = getelementptr inbounds nuw i8, ptr %1, i64 64
  %25 = load ptr, ptr %24, align 8, !tbaa !23
  %26 = getelementptr inbounds nuw i8, ptr %0, i64 64
  store ptr %25, ptr %26, align 8, !tbaa !23
  store ptr null, ptr %24, align 8, !tbaa !23
  %27 = getelementptr inbounds nuw i8, ptr %1, i64 72
  %28 = load i64, ptr %27, align 8, !tbaa !15
  %29 = getelementptr inbounds nuw i8, ptr %0, i64 72
  store i64 %28, ptr %29, align 8, !tbaa !15
  store i64 0, ptr %27, align 8, !tbaa !15
  %30 = getelementptr inbounds nuw i8, ptr %1, i64 80
  %31 = load i64, ptr %30, align 8, !tbaa !35
  %32 = getelementptr inbounds nuw i8, ptr %0, i64 80
  store i64 %31, ptr %32, align 8, !tbaa !35
  store i64 0, ptr %30, align 8, !tbaa !35
  %33 = getelementptr inbounds nuw i8, ptr %1, i64 88
  %34 = load ptr, ptr %33, align 8, !tbaa !28
  %35 = getelementptr inbounds nuw i8, ptr %0, i64 88
  store ptr %34, ptr %35, align 8, !tbaa !28
  store ptr null, ptr %33, align 8, !tbaa !28
  %36 = getelementptr inbounds nuw i8, ptr %1, i64 96
  %37 = load i64, ptr %36, align 8, !tbaa !31
  %38 = getelementptr inbounds nuw i8, ptr %0, i64 96
  store i64 %37, ptr %38, align 8, !tbaa !31
  store i64 0, ptr %36, align 8, !tbaa !31
  %39 = getelementptr inbounds nuw i8, ptr %1, i64 104
  %40 = load i64, ptr %39, align 8, !tbaa !26
  %41 = getelementptr inbounds nuw i8, ptr %0, i64 104
  store i64 %40, ptr %41, align 8, !tbaa !26
  store i64 0, ptr %39, align 8, !tbaa !26
  %42 = getelementptr inbounds nuw i8, ptr %1, i64 112
  %43 = load ptr, ptr %42, align 8, !tbaa !33
  %44 = getelementptr inbounds nuw i8, ptr %0, i64 112
  store ptr %43, ptr %44, align 8, !tbaa !33
  store ptr null, ptr %42, align 8, !tbaa !33
  %45 = getelementptr inbounds nuw i8, ptr %1, i64 120
  %46 = load i64, ptr %45, align 8, !tbaa !34
  %47 = getelementptr inbounds nuw i8, ptr %0, i64 120
  store i64 %46, ptr %47, align 8, !tbaa !34
  store i64 0, ptr %45, align 8, !tbaa !34
  %48 = getelementptr inbounds nuw i8, ptr %1, i64 128
  %49 = load i64, ptr %48, align 8, !tbaa !32
  %50 = getelementptr inbounds nuw i8, ptr %0, i64 128
  store i64 %49, ptr %50, align 8, !tbaa !32
  store i64 0, ptr %48, align 8, !tbaa !32
  ret void
}